; Function Attrs: nounwind uwtable
define ptr @Cudd_addIthVar(ptr noundef %0, i32 noundef %1) local_unnamed_addr #0 {
  %3 = icmp ugt i32 %1, 2147483645
  br i1 %3, label %.loopexit, label %.preheader

.preheader:                                       ; preds = %2
  %4 = getelementptr inbounds nuw i8, ptr %0, i64 448
  %5 = getelementptr inbounds nuw i8, ptr %0, i64 40
  %6 = getelementptr inbounds nuw i8, ptr %0, i64 48
  br label %7

7:                                                ; preds = %.preheader, %7
  store i32 0, ptr %4, align 8
  %8 = load ptr, ptr %5, align 8
  %9 = load ptr, ptr %6, align 8
  %10 = tail call ptr @cuddUniqueInter(ptr noundef %0, i32 noundef %1, ptr noundef %8, ptr noundef %9) #20
  %11 = load i32, ptr %4, align 8
  %12 = icmp eq i32 %11, 1
  br i1 %12, label %7, label %.loopexit, !llvm.loop !6

.loopexit:                                        ; preds = %7, %2
  %.0 = phi ptr [ null, %2 ], [ %10, %7 ]
  ret ptr %.0
}